; Function Attrs: mustprogress nounwind uwtable
define internal fastcc noundef zeroext i1 @_ZN5clang19RecursiveASTVisitorIN12_GLOBAL__N_122EmptyStatementsRemoverEE30TraverseNestedNameSpecifierLocENS_22NestedNameSpecifierLocE(ptr noundef nonnull align 1 dereferenceable(1) %0, ptr %1, ptr %2) unnamed_addr #0 align 2 {
  %4 = alloca %"class.clang::NestedNameSpecifierLoc", align 8
  store ptr %1, ptr %4, align 8
  %5 = getelementptr inbounds nuw i8, ptr %4, i64 8
  store ptr %2, ptr %5, align 8
  %.not = icmp eq ptr %1, null
  br i1 %.not, label %19, label %_ZNK5clang22NestedNameSpecifierLoc9getPrefixEv.exit

_ZNK5clang22NestedNameSpecifierLoc9getPrefixEv.exit: ; preds = %3
  %6 = getelementptr inbounds nuw i8, ptr %1, i64 8
  %.0.copyload.i.i.i.i.i = load i64, ptr %6, align 8
  %7 = and i64 %.0.copyload.i.i.i.i.i, -8
  %.not4 = icmp eq i64 %7, 0
  br i1 %.not4, label %11, label %8

8:                                                ; preds = %_ZNK5clang22NestedNameSpecifierLoc9getPrefixEv.exit
  %9 = inttoptr i64 %7 to ptr
  %10 = tail call fastcc noundef zeroext i1 @_ZN5clang19RecursiveASTVisitorIN12_GLOBAL__N_122EmptyStatementsRemoverEE30TraverseNestedNameSpecifierLocENS_22NestedNameSpecifierLocE(ptr noundef nonnull align 1 dereferenceable(1) %0, ptr nonnull %9, ptr %2)
  br i1 %10, label %11, label %19

11:                                               ; preds = %8, %_ZNK5clang22NestedNameSpecifierLoc9getPrefixEv.exit
  %12 = tail call noundef i32 @_ZNK5clang19NestedNameSpecifier7getKindEv(ptr noundef nonnull align 8 dereferenceable(24) %1) #14
  switch i32 %12, label %18 [
    i32 0, label %19
    i32 1, label %19
    i32 2, label %19
    i32 5, label %19
    i32 6, label %19
    i32 3, label %13
    i32 4, label %13
  ]

13:                                               ; preds = %11, %11
  %14 = call { ptr, ptr } @_ZNK5clang22NestedNameSpecifierLoc10getTypeLocEv(ptr noundef nonnull align 8 dereferenceable(16) %4) #14
  %15 = extractvalue { ptr, ptr } %14, 0
  %16 = extractvalue { ptr, ptr } %14, 1
  %17 = call fastcc noundef zeroext i1 @_ZN5clang19RecursiveASTVisitorIN12_GLOBAL__N_122EmptyStatementsRemoverEE15TraverseTypeLocENS_7TypeLocE(ptr noundef nonnull align 1 dereferenceable(1) %0, ptr %15, ptr %16)
  br i1 %17, label %18, label %19

18:                                               ; preds = %13, %11
  br label %19

19:                                               ; preds = %13, %11, %11, %11, %11, %11, %8, %3, %18
  %.0 = phi i1 [ true, %18 ], [ true, %3 ], [ false, %8 ], [ true, %11 ], [ true, %11 ], [ true, %11 ], [ true, %11 ], [ true, %11 ], [ false, %13 ]
  ret i1 %.0
}